	.file	"program.c"
	.text
.Ltext0:
	.section	.rodata
	.align 8
.LC0:
	.string	"\nTesting problem (A)\n\tAssuming an unsorted linked list of integers, and \nwithout using a temporary buffer, write a routine to \ndelete any duplicates from a thread-safe linked list.\n"
.LC1:
	.string	"\tTest A0: "
.LC2:
	.string	"\tTest A1: "
.LC3:
	.string	"\tTest A2: "
.LC4:
	.string	"\tTest A3: "
.LC5:
	.string	"\tTest A4: "
	.align 8
.LC6:
	.string	"\nTesting problem (B)\n\tSuppose we have an array of characters pointed \nto by the pointer char *buf. Write a routine to compute \nand set the parity bit of the characters and output the \ncharacters in hex form.\n"
.LC7:
	.string	"\tTest B0: "
.LC8:
	.string	"\tTest B1: "
.LC9:
	.string	"\tTest B2: "
	.text
	.globl	main
	.type	main, @function
main:
.LFB2:
	.file 1 "source/program.c"
	.loc 1 36 0
	.cfi_startproc
	pushq	%rbp
	.cfi_def_cfa_offset 16
	.cfi_offset 6, -16
	movq	%rsp, %rbp
	.cfi_def_cfa_register 6
	pushq	%rbx
	subq	$40, %rsp
	.cfi_offset 3, -24
	.loc 1 37 0
	movl	$0, %edi
	call	time@PLT
	movl	%eax, %edi
	call	srand@PLT
	.loc 1 40 0
	leaq	.LC0(%rip), %rdi
	call	puts@PLT
	.loc 1 46 0
	call	create_list@PLT
	movq	%rax, -32(%rbp)
	movq	-32(%rbp), %rax
	testq	%rax, %rax
	jne	.L2
	.loc 1 47 0
	movl	$-1, %eax
	jmp	.L13
.L2:
	.loc 1 50 0
	leaq	.LC1(%rip), %rdi
	call	puts@PLT
	.loc 1 51 0
	leaq	-32(%rbp), %rax
	movq	%rax, %rdi
	call	print_list@PLT
	.loc 1 53 0
	leaq	-32(%rbp), %rax
	movq	%rax, %rdi
	call	sort_list@PLT
	.loc 1 54 0
	leaq	-32(%rbp), %rax
	movq	%rax, %rdi
	call	remove_duplicates_list@PLT
	.loc 1 55 0
	leaq	-32(%rbp), %rax
	movq	%rax, %rdi
	call	print_list@PLT
	.loc 1 57 0
	leaq	.LC2(%rip), %rdi
	call	puts@PLT
	.loc 1 58 0
	leaq	-32(%rbp), %rax
	movl	$0, %edx
	movl	$1, %esi
	movq	%rax, %rdi
	call	insert_link_list@PLT
	.loc 1 59 0
	leaq	-32(%rbp), %rax
	movq	%rax, %rdi
	call	print_list@PLT
	.loc 1 61 0
	leaq	-32(%rbp), %rax
	movq	%rax, %rdi
	call	sort_list@PLT
	.loc 1 62 0
	leaq	-32(%rbp), %rax
	movq	%rax, %rdi
	call	remove_duplicates_list@PLT
	.loc 1 63 0
	leaq	-32(%rbp), %rax
	movq	%rax, %rdi
	call	print_list@PLT
	.loc 1 65 0
	leaq	.LC3(%rip), %rdi
	call	puts@PLT
	.loc 1 66 0
	leaq	-32(%rbp), %rax
	movl	$0, %edx
	movl	$1, %esi
	movq	%rax, %rdi
	call	insert_link_list@PLT
	.loc 1 67 0
	leaq	-32(%rbp), %rax
	movl	$0, %edx
	movl	$1, %esi
	movq	%rax, %rdi
	call	insert_link_list@PLT
	.loc 1 68 0
	leaq	-32(%rbp), %rax
	movq	%rax, %rdi
	call	print_list@PLT
	.loc 1 70 0
	leaq	-32(%rbp), %rax
	movq	%rax, %rdi
	call	sort_list@PLT
	.loc 1 71 0
	leaq	-32(%rbp), %rax
	movq	%rax, %rdi
	call	remove_duplicates_list@PLT
	.loc 1 72 0
	leaq	-32(%rbp), %rax
	movq	%rax, %rdi
	call	print_list@PLT
	.loc 1 74 0
	leaq	.LC4(%rip), %rdi
	call	puts@PLT
	.loc 1 75 0
	leaq	-32(%rbp), %rax
	movl	$0, %edx
	movl	$1, %esi
	movq	%rax, %rdi
	call	insert_link_list@PLT
	.loc 1 76 0
	leaq	-32(%rbp), %rax
	movl	$0, %edx
	movl	$2, %esi
	movq	%rax, %rdi
	call	insert_link_list@PLT
	.loc 1 77 0
	leaq	-32(%rbp), %rax
	movl	$0, %edx
	movl	$2, %esi
	movq	%rax, %rdi
	call	insert_link_list@PLT
	.loc 1 78 0
	leaq	-32(%rbp), %rax
	movl	$0, %edx
	movl	$3, %esi
	movq	%rax, %rdi
	call	insert_link_list@PLT
	.loc 1 79 0
	leaq	-32(%rbp), %rax
	movl	$0, %edx
	movl	$1, %esi
	movq	%rax, %rdi
	call	insert_link_list@PLT
	.loc 1 80 0
	leaq	-32(%rbp), %rax
	movq	%rax, %rdi
	call	print_list@PLT
	.loc 1 82 0
	leaq	-32(%rbp), %rax
	movq	%rax, %rdi
	call	sort_list@PLT
	.loc 1 83 0
	leaq	-32(%rbp), %rax
	movq	%rax, %rdi
	call	remove_duplicates_list@PLT
	.loc 1 84 0
	leaq	-32(%rbp), %rax
	movq	%rax, %rdi
	call	print_list@PLT
	.loc 1 86 0
	leaq	.LC5(%rip), %rdi
	call	puts@PLT
	.loc 1 87 0
	leaq	-32(%rbp), %rax
	movl	$2, %edx
	movl	$3, %esi
	movq	%rax, %rdi
	call	insert_link_list@PLT
	.loc 1 88 0
	leaq	-32(%rbp), %rax
	movl	$3, %edx
	movl	$3, %esi
	movq	%rax, %rdi
	call	insert_link_list@PLT
	.loc 1 89 0
	leaq	-32(%rbp), %rax
	movl	$0, %edx
	movl	$7, %esi
	movq	%rax, %rdi
	call	insert_link_list@PLT
	.loc 1 90 0
	leaq	-32(%rbp), %rax
	movl	$0, %edx
	movl	$6, %esi
	movq	%rax, %rdi
	call	insert_link_list@PLT
	.loc 1 91 0
	leaq	-32(%rbp), %rax
	movl	$5, %edx
	movl	$4, %esi
	movq	%rax, %rdi
	call	insert_link_list@PLT
	.loc 1 92 0
	leaq	-32(%rbp), %rax
	movl	$0, %edx
	movl	$7, %esi
	movq	%rax, %rdi
	call	insert_link_list@PLT
	.loc 1 93 0
	leaq	-32(%rbp), %rax
	movl	$0, %edx
	movl	$6, %esi
	movq	%rax, %rdi
	call	insert_link_list@PLT
	.loc 1 94 0
	leaq	-32(%rbp), %rax
	movl	$3, %edx
	movl	$1, %esi
	movq	%rax, %rdi
	call	insert_link_list@PLT
	.loc 1 95 0
	leaq	-32(%rbp), %rax
	movl	$0, %edx
	movl	$7, %esi
	movq	%rax, %rdi
	call	insert_link_list@PLT
	.loc 1 96 0
	leaq	-32(%rbp), %rax
	movl	$6, %edx
	movl	$4, %esi
	movq	%rax, %rdi
	call	insert_link_list@PLT
	.loc 1 97 0
	leaq	-32(%rbp), %rax
	movl	$8, %edx
	movl	$2, %esi
	movq	%rax, %rdi
	call	insert_link_list@PLT
	.loc 1 98 0
	leaq	-32(%rbp), %rax
	movl	$2, %edx
	movl	$3, %esi
	movq	%rax, %rdi
	call	insert_link_list@PLT
	.loc 1 99 0
	leaq	-32(%rbp), %rax
	movl	$12, %edx
	movl	$5, %esi
	movq	%rax, %rdi
	call	insert_link_list@PLT
	.loc 1 100 0
	leaq	-32(%rbp), %rax
	movq	%rax, %rdi
	call	print_list@PLT
	.loc 1 102 0
	leaq	-32(%rbp), %rax
	movq	%rax, %rdi
	call	sort_list@PLT
	.loc 1 103 0
	leaq	-32(%rbp), %rax
	movq	%rax, %rdi
	call	remove_duplicates_list@PLT
	.loc 1 104 0
	leaq	-32(%rbp), %rax
	movq	%rax, %rdi
	call	print_list@PLT
	.loc 1 105 0
	leaq	-32(%rbp), %rax
	movq	%rax, %rdi
	call	destroy_list@PLT
	.loc 1 106 0
	movq	$0, -32(%rbp)
	.loc 1 108 0
	leaq	.LC6(%rip), %rdi
	call	puts@PLT
	.loc 1 118 0
	movq	CHAR_LENGTH.3237(%rip), %rax
	movq	%rax, %rdi
	call	malloc@PLT
	movq	%rax, -40(%rbp)
	movq	-40(%rbp), %rax
	testq	%rax, %rax
	jne	.L4
	.loc 1 120 0
	movl	$-1, %eax
	jmp	.L13
.L4:
	.loc 1 123 0
	movq	$0, -24(%rbp)
	jmp	.L5
.L6:
	.loc 1 124 0 discriminator 3
	movq	-40(%rbp), %rdx
	movq	-24(%rbp), %rax
	leaq	(%rdx,%rax), %rbx
	call	rand@PLT
	cltq
	movq	UCHAR_RANGE.3238(%rip), %rcx
	movl	$0, %edx
	divq	%rcx
	movq	%rdx, %rax
	movb	%al, (%rbx)
	.loc 1 123 0 discriminator 3
	addq	$1, -24(%rbp)
.L5:
	.loc 1 123 0 is_stmt 0 discriminator 1
	movq	CHAR_LENGTH.3237(%rip), %rax
	cmpq	%rax, -24(%rbp)
	jb	.L6
	.loc 1 126 0 is_stmt 1
	leaq	.LC7(%rip), %rdi
	call	puts@PLT
	.loc 1 127 0
	movq	CHAR_LENGTH.3237(%rip), %rdx
	leaq	-40(%rbp), %rax
	movq	%rdx, %rsi
	movq	%rax, %rdi
	call	setParityPrint@PLT
	.loc 1 128 0
	movq	-40(%rbp), %rax
	movq	%rax, %rdi
	call	free@PLT
	.loc 1 129 0
	movq	$0, -40(%rbp)
	.loc 1 131 0
	movq	CHAR_LENGTH.3237(%rip), %rax
	movq	%rax, %rdi
	call	malloc@PLT
	movq	%rax, -40(%rbp)
	movq	-40(%rbp), %rax
	testq	%rax, %rax
	jne	.L7
	.loc 1 133 0
	movl	$-1, %eax
	jmp	.L13
.L7:
	.loc 1 136 0
	movq	$0, -24(%rbp)
	jmp	.L8
.L9:
	.loc 1 137 0 discriminator 3
	movq	-40(%rbp), %rdx
	movq	-24(%rbp), %rax
	leaq	(%rdx,%rax), %rbx
	call	rand@PLT
	cltq
	movq	UCHAR_RANGE.3238(%rip), %rcx
	movl	$0, %edx
	divq	%rcx
	movq	%rdx, %rax
	movb	%al, (%rbx)
	.loc 1 136 0 discriminator 3
	addq	$1, -24(%rbp)
.L8:
	.loc 1 136 0 is_stmt 0 discriminator 1
	movq	CHAR_LENGTH.3237(%rip), %rax
	cmpq	%rax, -24(%rbp)
	jb	.L9
	.loc 1 139 0 is_stmt 1
	leaq	.LC8(%rip), %rdi
	call	puts@PLT
	.loc 1 140 0
	movq	CHAR_LENGTH.3237(%rip), %rdx
	leaq	-40(%rbp), %rax
	movq	%rdx, %rsi
	movq	%rax, %rdi
	call	setParityPrint@PLT
	.loc 1 141 0
	movq	-40(%rbp), %rax
	movq	%rax, %rdi
	call	free@PLT
	.loc 1 142 0
	movq	$0, -40(%rbp)
	.loc 1 144 0
	movq	CHAR_LENGTH.3237(%rip), %rax
	movq	%rax, %rdi
	call	malloc@PLT
	movq	%rax, -40(%rbp)
	movq	-40(%rbp), %rax
	testq	%rax, %rax
	jne	.L10
	.loc 1 146 0
	movl	$-1, %eax
	jmp	.L13
.L10:
	.loc 1 149 0
	movq	$0, -24(%rbp)
	jmp	.L11
.L12:
	.loc 1 150 0 discriminator 3
	movq	-40(%rbp), %rdx
	movq	-24(%rbp), %rax
	leaq	(%rdx,%rax), %rbx
	call	rand@PLT
	cltq
	movq	UCHAR_RANGE.3238(%rip), %rcx
	movl	$0, %edx
	divq	%rcx
	movq	%rdx, %rax
	movb	%al, (%rbx)
	.loc 1 149 0 discriminator 3
	addq	$1, -24(%rbp)
.L11:
	.loc 1 149 0 is_stmt 0 discriminator 1
	movq	CHAR_LENGTH.3237(%rip), %rax
	cmpq	%rax, -24(%rbp)
	jb	.L12
	.loc 1 152 0 is_stmt 1
	leaq	.LC9(%rip), %rdi
	call	puts@PLT
	.loc 1 153 0
	movq	CHAR_LENGTH.3237(%rip), %rdx
	leaq	-40(%rbp), %rax
	movq	%rdx, %rsi
	movq	%rax, %rdi
	call	setParityPrint@PLT
	.loc 1 154 0
	movq	-40(%rbp), %rax
	movq	%rax, %rdi
	call	free@PLT
	.loc 1 155 0
	movq	$0, -40(%rbp)
	.loc 1 157 0
	movl	$0, %eax
.L13:
	.loc 1 158 0 discriminator 1
	addq	$40, %rsp
	popq	%rbx
	popq	%rbp
	.cfi_def_cfa 7, 8
	ret
	.cfi_endproc
.LFE2:
	.size	main, .-main
	.section	.rodata
	.align 8
	.type	CHAR_LENGTH.3237, @object
	.size	CHAR_LENGTH.3237, 8
CHAR_LENGTH.3237:
	.quad	25
	.align 8
	.type	UCHAR_RANGE.3238, @object
	.size	UCHAR_RANGE.3238, 8
UCHAR_RANGE.3238:
	.quad	255
	.text
.Letext0:
	.file 2 "/usr/lib/gcc/x86_64-linux-gnu/6/include/stddef.h"
	.file 3 "/usr/include/x86_64-linux-gnu/bits/types.h"
	.file 4 "/usr/include/time.h"
	.file 5 "/usr/include/libio.h"
	.file 6 "/usr/include/stdio.h"
	.file 7 "/usr/include/x86_64-linux-gnu/bits/sys_errlist.h"
	.section	.note.GNU-stack,"",@progbits
